target datalayout = "e-m:e-p270:32:32-p271:32:32-p272:64:64-i64:64-i128:128-f80:128-n8:16:32:64-S128"
target triple = "x86_64-unknown-linux-gnu"

%"class.icu_75::UObject" = type { ptr }
%"class.icu_75::UnicodeString" = type { %"class.icu_75::Replaceable", %"union.icu_75::UnicodeString::StackBufferOrFields" }
%"class.icu_75::Replaceable" = type { %"class.icu_75::UObject" }
%"union.icu_75::UnicodeString::StackBufferOrFields" = type { %struct.anon.0, [32 x i8] }
%struct.anon.0 = type { i16, i32, i32, ptr }
%"class.icu_75::LocalPointer.1" = type { %"class.icu_75::LocalPointerBase.2" }
%"class.icu_75::LocalPointerBase.2" = type { ptr }
%"class.icu_75::FormatNameEnumeration" = type { %"class.icu_75::StringEnumeration.base", i32, %"class.icu_75::LocalPointer.1" }
%"class.icu_75::StringEnumeration.base" = type <{ %"class.icu_75::UObject", %"class.icu_75::UnicodeString", [32 x i8], ptr, i32 }>
%"class.icu_75::UVector" = type { %"class.icu_75::UObject", i32, i32, ptr, ptr, ptr }

; Function Attrs: mustprogress nounwind uwtable
define linkonce_odr noundef i32 @_ZNK6icu_757UVector4sizeEv(ptr noundef nonnull align 8 dereferenceable(40) %this) #0 comdat align 2 {
entry:
  %this.addr = alloca ptr, align 8
  store ptr %this, ptr %this.addr, align 8
  %this1 = load ptr, ptr %this.addr, align 8
  %count = getelementptr inbounds %"class.icu_75::UVector", ptr %this1, i32 0, i32 1
  %0 = load i32, ptr %count, align 8
  ret i32 %0
}

; Function Attrs: mustprogress nounwind uwtable
define linkonce_odr noundef ptr @_ZNK6icu_7516LocalPointerBaseINS_7UVectorEEptEv(ptr noundef nonnull align 8 dereferenceable(8) %this) #0 comdat align 2 {
entry:
  %this.addr = alloca ptr, align 8
  store ptr %this, ptr %this.addr, align 8
  %this1 = load ptr, ptr %this.addr, align 8
  %ptr = getelementptr inbounds %"class.icu_75::LocalPointerBase.2", ptr %this1, i32 0, i32 0
  %0 = load ptr, ptr %ptr, align 8
  ret ptr %0
}

; Function Attrs: mustprogress nounwind uwtable
define internal noundef signext i8 @_ZL9U_SUCCESS10UErrorCode(i32 noundef %code) #0 {
entry:
  %code.addr = alloca i32, align 4
  store i32 %code, ptr %code.addr, align 4
  %0 = load i32, ptr %code.addr, align 4
  %cmp = icmp sle i32 %0, 0
  %conv = zext i1 %cmp to i8
  ret i8 %conv
}

; Function Attrs: mustprogress uwtable
define noundef ptr @_ZN6icu_7521FormatNameEnumeration5snextER10UErrorCode(ptr noundef nonnull align 8 dereferenceable(128) %this, ptr noundef nonnull align 4 dereferenceable(4) %status) unnamed_addr #1 align 2 {
entry:
  %retval = alloca ptr, align 8
  %this.addr = alloca ptr, align 8
  %status.addr = alloca ptr, align 8
  store ptr %this, ptr %this.addr, align 8
  store ptr %status, ptr %status.addr, align 8
  %this1 = load ptr, ptr %this.addr, align 8
  %0 = load ptr, ptr %status.addr, align 8
  %1 = load i32, ptr %0, align 4
  %call = call noundef signext i8 @_ZL9U_SUCCESS10UErrorCode(i32 noundef %1)
  %tobool = icmp ne i8 %call, 0
  br i1 %tobool, label %land.lhs.true, label %if.end

land.lhs.true:                                    ; preds = %entry
  %pos = getelementptr inbounds %"class.icu_75::FormatNameEnumeration", ptr %this1, i32 0, i32 1
  %2 = load i32, ptr %pos, align 4
  %fFormatNames = getelementptr inbounds %"class.icu_75::FormatNameEnumeration", ptr %this1, i32 0, i32 2
  %call2 = call noundef ptr @_ZNK6icu_7516LocalPointerBaseINS_7UVectorEEptEv(ptr noundef nonnull align 8 dereferenceable(8) %fFormatNames)
  %call3 = call noundef i32 @_ZNK6icu_757UVector4sizeEv(ptr noundef nonnull align 8 dereferenceable(40) %call2)
  %cmp = icmp slt i32 %2, %call3
  br i1 %cmp, label %if.then, label %if.end

if.then:                                          ; preds = %land.lhs.true
  %fFormatNames4 = getelementptr inbounds %"class.icu_75::FormatNameEnumeration", ptr %this1, i32 0, i32 2
  %call5 = call noundef ptr @_ZNK6icu_7516LocalPointerBaseINS_7UVectorEEptEv(ptr noundef nonnull align 8 dereferenceable(8) %fFormatNames4)
  %pos6 = getelementptr inbounds %"class.icu_75::FormatNameEnumeration", ptr %this1, i32 0, i32 1
  %3 = load i32, ptr %pos6, align 4
  %inc = add nsw i32 %3, 1
  store i32 %inc, ptr %pos6, align 4
  %call7 = call noundef ptr @_ZNK6icu_757UVector9elementAtEi(ptr noundef nonnull align 8 dereferenceable(40) %call5, i32 noundef %3)
  store ptr %call7, ptr %retval, align 8
  br label %return

if.end:                                           ; preds = %land.lhs.true, %entry
  store ptr null, ptr %retval, align 8
  br label %return

return:                                           ; preds = %if.end, %if.then
  %4 = load ptr, ptr %retval, align 8
  ret ptr %4
}