; Function Attrs: mustprogress uwtable
define noundef ptr @_ZN6icu_7521FormatNameEnumeration5snextER10UErrorCode(ptr nocapture noundef nonnull align 8 dereferenceable(128) %this, ptr nocapture noundef nonnull readonly align 4 dereferenceable(4) %status) unnamed_addr #1 align 2 {
entry:
  %0 = load i32, ptr %status, align 4
  %cmp.i = icmp sgt i32 %0, 0
  br i1 %cmp.i, label %return, label %land.lhs.true

land.lhs.true:                                    ; preds = %entry
  %pos = getelementptr inbounds i8, ptr %this, i64 116
  %1 = load i32, ptr %pos, align 4
  %fFormatNames = getelementptr inbounds i8, ptr %this, i64 120
  %2 = load ptr, ptr %fFormatNames, align 8
  %count.i = getelementptr inbounds i8, ptr %2, i64 8
  %3 = load i32, ptr %count.i, align 8
  %cmp = icmp slt i32 %1, %3
  br i1 %cmp, label %if.then, label %return

if.then:                                          ; preds = %land.lhs.true
  %inc = add nsw i32 %1, 1
  store i32 %inc, ptr %pos, align 4
  %call7 = tail call noundef ptr @_ZNK6icu_757UVector9elementAtEi(ptr noundef nonnull align 8 dereferenceable(40) %2, i32 noundef %1)
  br label %return

return:                                           ; preds = %entry, %land.lhs.true, %if.then
  %retval.0 = phi ptr [ %call7, %if.then ], [ null, %land.lhs.true ], [ null, %entry ]
  ret ptr %retval.0
}